target datalayout = "e-m:e-p270:32:32-p271:32:32-p272:64:64-i64:64-i128:128-f80:128-n8:16:32:64-S128"
target triple = "x86_64-pc-linux-gnu"

%class.VNType = type { i16 }
%class.AstNode = type { ptr, ptr, ptr, ptr, ptr, ptr, ptr, ptr, %class.VNType, %struct.anon, i8, i32, ptr, ptr, ptr, ptr, %class.VNUser, i32, i32, %class.VNUser, %class.VNUser, i32, i32, %class.VNUser }
%struct.anon = type { i8 }
%class.VNUser = type { %union.anon.3 }
%union.anon.3 = type { ptr }

@_ZN7AstNode12s_editCntGblE = dso_local global i64 0, align 8
@_ZTV7AstNode = external unnamed_addr constant { [39 x ptr] }, align 8

; Function Attrs: mustprogress nounwind uwtable
define linkonce_odr dso_local void @_ZN7AstNode12editCountIncEv(ptr noundef nonnull align 8 dereferenceable(152) %0) #5 comdat align 2 {
  %2 = alloca ptr, align 8
  store ptr %0, ptr %2, align 8
  %3 = load i64, ptr @_ZN7AstNode12s_editCntGblE, align 8
  %4 = add i64 %3, 1
  store i64 %4, ptr @_ZN7AstNode12s_editCntGblE, align 8
  ret void
}

; Function Attrs: mustprogress nounwind uwtable
define linkonce_odr dso_local void @_ZN6VNUserC2Ei(ptr noundef nonnull align 8 dereferenceable(8) %0, i32 noundef %1) unnamed_addr #5 comdat align 2 {
  %3 = alloca ptr, align 8
  %4 = alloca i32, align 4
  store ptr %0, ptr %3, align 8
  store i32 %1, ptr %4, align 4
  %5 = load ptr, ptr %3, align 8
  %6 = getelementptr inbounds %class.VNUser, ptr %5, i32 0, i32 0
  store ptr null, ptr %6, align 8
  %7 = load i32, ptr %4, align 4
  %8 = getelementptr inbounds %class.VNUser, ptr %5, i32 0, i32 0
  store i32 %7, ptr %8, align 8
  ret void
}

; Function Attrs: mustprogress uwtable
define dso_local void @_ZN7AstNodeC2E6VNTypeP8FileLine(ptr noundef nonnull align 8 dereferenceable(152) %0, i16 %1, ptr noundef %2) unnamed_addr #4 align 2 {
  %4 = alloca %class.VNType, align 2
  %5 = alloca ptr, align 8
  %6 = alloca ptr, align 8
  %7 = getelementptr inbounds %class.VNType, ptr %4, i32 0, i32 0
  store i16 %1, ptr %7, align 2
  store ptr %0, ptr %5, align 8
  store ptr %2, ptr %6, align 8
  %8 = load ptr, ptr %5, align 8
  store ptr getelementptr inbounds inrange(-16, 296) ({ [39 x ptr] }, ptr @_ZTV7AstNode, i32 0, i32 0, i32 2), ptr %8, align 8
  %9 = getelementptr inbounds %class.AstNode, ptr %8, i32 0, i32 1
  store ptr null, ptr %9, align 8
  %10 = getelementptr inbounds %class.AstNode, ptr %8, i32 0, i32 2
  store ptr null, ptr %10, align 8
  %11 = getelementptr inbounds %class.AstNode, ptr %8, i32 0, i32 3
  store ptr null, ptr %11, align 8
  %12 = getelementptr inbounds %class.AstNode, ptr %8, i32 0, i32 4
  store ptr null, ptr %12, align 8
  %13 = getelementptr inbounds %class.AstNode, ptr %8, i32 0, i32 5
  store ptr null, ptr %13, align 8
  %14 = getelementptr inbounds %class.AstNode, ptr %8, i32 0, i32 6
  store ptr null, ptr %14, align 8
  %15 = getelementptr inbounds %class.AstNode, ptr %8, i32 0, i32 7
  store ptr null, ptr %15, align 8
  %16 = getelementptr inbounds %class.AstNode, ptr %8, i32 0, i32 8
  call void @llvm.memcpy.p0.p0.i64(ptr align 8 %16, ptr align 2 %4, i64 2, i1 false)
  %17 = getelementptr inbounds %class.AstNode, ptr %8, i32 0, i32 10
  store i8 0, ptr %17, align 1
  %18 = getelementptr inbounds %class.AstNode, ptr %8, i32 0, i32 11
  store i32 0, ptr %18, align 4
  %19 = getelementptr inbounds %class.AstNode, ptr %8, i32 0, i32 12
  store ptr null, ptr %19, align 8
  %20 = getelementptr inbounds %class.AstNode, ptr %8, i32 0, i32 14
  %21 = load ptr, ptr %6, align 8
  store ptr %21, ptr %20, align 8
  %22 = getelementptr inbounds %class.AstNode, ptr %8, i32 0, i32 15
  store ptr null, ptr %22, align 8
  %23 = getelementptr inbounds %class.AstNode, ptr %8, i32 0, i32 16
  call void @_ZN6VNUserC2Ei(ptr noundef nonnull align 8 dereferenceable(8) %23, i32 noundef 0)
  %24 = getelementptr inbounds %class.AstNode, ptr %8, i32 0, i32 17
  store i32 0, ptr %24, align 8
  %25 = getelementptr inbounds %class.AstNode, ptr %8, i32 0, i32 18
  store i32 0, ptr %25, align 4
  %26 = getelementptr inbounds %class.AstNode, ptr %8, i32 0, i32 19
  call void @_ZN6VNUserC2Ei(ptr noundef nonnull align 8 dereferenceable(8) %26, i32 noundef 0)
  %27 = getelementptr inbounds %class.AstNode, ptr %8, i32 0, i32 20
  call void @_ZN6VNUserC2Ei(ptr noundef nonnull align 8 dereferenceable(8) %27, i32 noundef 0)
  %28 = getelementptr inbounds %class.AstNode, ptr %8, i32 0, i32 21
  store i32 0, ptr %28, align 8
  %29 = getelementptr inbounds %class.AstNode, ptr %8, i32 0, i32 22
  store i32 0, ptr %29, align 4
  %30 = getelementptr inbounds %class.AstNode, ptr %8, i32 0, i32 23
  call void @_ZN6VNUserC2Ei(ptr noundef nonnull align 8 dereferenceable(8) %30, i32 noundef 0)
  %31 = getelementptr inbounds %class.AstNode, ptr %8, i32 0, i32 13
  store ptr %8, ptr %31, align 8
  %32 = getelementptr inbounds %class.AstNode, ptr %8, i32 0, i32 9
  %33 = load i8, ptr %32, align 2
  %34 = and i8 %33, -2
  %35 = or i8 %34, 0
  store i8 %35, ptr %32, align 2
  %36 = getelementptr inbounds %class.AstNode, ptr %8, i32 0, i32 9
  %37 = load i8, ptr %36, align 2
  %38 = and i8 %37, -3
  %39 = or i8 %38, 0
  store i8 %39, ptr %36, align 2
  %40 = getelementptr inbounds %class.AstNode, ptr %8, i32 0, i32 9
  %41 = load i8, ptr %40, align 2
  %42 = and i8 %41, -5
  %43 = or i8 %42, 4
  store i8 %43, ptr %40, align 2
  %44 = getelementptr inbounds %class.AstNode, ptr %8, i32 0, i32 9
  %45 = load i8, ptr %44, align 2
  %46 = and i8 %45, 7
  %47 = or i8 %46, 0
  store i8 %47, ptr %44, align 2
  call void @_ZN7AstNode12editCountIncEv(ptr noundef nonnull align 8 dereferenceable(152) %8)
  ret void
}