; Function Attrs: mustprogress nofree norecurse nosync nounwind willreturn memory(readwrite, argmem: write, inaccessiblemem: none) uwtable
define dso_local void @_ZN7AstNodeC2E6VNTypeP8FileLine(ptr noundef nonnull align 8 dereferenceable(152) %0, i16 %1, ptr noundef %2) unnamed_addr #5 align 2 {
  store ptr getelementptr inbounds inrange(-16, 296) ({ [39 x ptr] }, ptr @_ZTV7AstNode, i64 0, i32 0, i64 2), ptr %0, align 8
  %4 = getelementptr inbounds i8, ptr %0, i64 8
  %5 = getelementptr inbounds i8, ptr %0, i64 64
  tail call void @llvm.memset.p0.i64(ptr noundef nonnull align 8 dereferenceable(56) %4, i8 0, i64 56, i1 false)
  store i16 %1, ptr %5, align 8
  %6 = getelementptr inbounds i8, ptr %0, i64 67
  store i8 0, ptr %6, align 1
  %7 = getelementptr inbounds i8, ptr %0, i64 68
  store i32 0, ptr %7, align 4
  %8 = getelementptr inbounds i8, ptr %0, i64 72
  store ptr null, ptr %8, align 8
  %9 = getelementptr inbounds i8, ptr %0, i64 88
  store ptr %2, ptr %9, align 8
  %10 = getelementptr inbounds i8, ptr %0, i64 96
  %11 = getelementptr inbounds i8, ptr %0, i64 80
  tail call void @llvm.memset.p0.i64(ptr noundef nonnull align 8 dereferenceable(56) %10, i8 0, i64 56, i1 false)
  store ptr %0, ptr %11, align 8
  %12 = getelementptr inbounds i8, ptr %0, i64 66
  store i8 4, ptr %12, align 2
  %13 = load i64, ptr @_ZN7AstNode12s_editCntGblE, align 8
  %14 = add i64 %13, 1
  store i64 %14, ptr @_ZN7AstNode12s_editCntGblE, align 8
  ret void
}